target datalayout = "e-m:e-p270:32:32-p271:32:32-p272:64:64-i64:64-i128:128-f80:128-n8:16:32:64-S128"
target triple = "x86_64-pc-linux-gnu"

%struct.VuDev = type { i32, i32, ptr, ptr, %struct.VuDevInflightInfo, i32, %union.pthread_mutex_t, i32, i64, ptr, i64, i64, i8, i16, ptr, ptr, ptr, ptr, ptr, i32, i8 }
%struct.VuDevInflightInfo = type { i32, ptr, i64 }
%union.pthread_mutex_t = type { %struct.__pthread_mutex_s }
%struct.__pthread_mutex_s = type { i32, i32, i32, i32, i32, i16, i16, %struct.__pthread_internal_list }
%struct.__pthread_internal_list = type { ptr, ptr }
%struct.VuVirtq = type { %struct.VuRing, ptr, ptr, i16, i64, i16, i16, i16, i16, i8, i8, i32, ptr, i32, i32, i32, i32, i8, %struct.vhost_vring_addr }
%struct.VuRing = type { i32, ptr, ptr, ptr, i64, i32 }
%struct.vhost_vring_addr = type { i32, i32, i64, i64, i64, i64 }
%struct.vring_avail = type { i16, i16, [0 x i16] }

@.str.98 = private unnamed_addr constant [26 x i8] c"remapping queue on access\00", align 1

; Function Attrs: inlinehint nounwind uwtable
define internal zeroext i16 @__uint16_identity(i16 noundef zeroext %0) #3 {
  %2 = alloca i16, align 2
  store i16 %0, ptr %2, align 2
  %3 = load i16, ptr %2, align 2
  ret i16 %3
}

; Function Attrs: inlinehint nounwind uwtable
define internal zeroext i16 @vring_avail_idx(ptr noundef %0) #3 {
  %2 = alloca ptr, align 8
  store ptr %0, ptr %2, align 8
  %3 = load ptr, ptr %2, align 8
  %4 = getelementptr inbounds nuw %struct.VuVirtq, ptr %3, i32 0, i32 0
  %5 = getelementptr inbounds nuw %struct.VuRing, ptr %4, i32 0, i32 2
  %6 = load ptr, ptr %5, align 8
  %7 = getelementptr inbounds nuw %struct.vring_avail, ptr %6, i32 0, i32 1
  %8 = load i16, ptr %7, align 2
  %9 = call zeroext i16 @__uint16_identity(i16 noundef zeroext %8)
  %10 = load ptr, ptr %2, align 8
  %11 = getelementptr inbounds nuw %struct.VuVirtq, ptr %10, i32 0, i32 6
  store i16 %9, ptr %11, align 2
  %12 = load ptr, ptr %2, align 8
  %13 = getelementptr inbounds nuw %struct.VuVirtq, ptr %12, i32 0, i32 6
  %14 = load i16, ptr %13, align 2
  ret i16 %14
}

; Function Attrs: nounwind uwtable
define internal zeroext i1 @vu_is_vq_usable(ptr noundef %0, ptr noundef %1) #0 {
  %3 = alloca i1, align 1
  %4 = alloca ptr, align 8
  %5 = alloca ptr, align 8
  store ptr %0, ptr %4, align 8
  store ptr %1, ptr %5, align 8
  %6 = load ptr, ptr %4, align 8
  %7 = getelementptr inbounds nuw %struct.VuDev, ptr %6, i32 0, i32 12
  %8 = load i8, ptr %7, align 8, !range !5, !noundef !6
  %9 = trunc i8 %8 to i1
  %10 = xor i1 %9, true
  %11 = xor i1 %10, true
  %12 = zext i1 %11 to i32
  %13 = sext i32 %12 to i64
  %14 = call i64 @llvm.expect.i64(i64 %13, i64 0)
  %15 = icmp ne i64 %14, 0
  br i1 %15, label %16, label %17

16:                                               ; preds = %2
  store i1 false, ptr %3, align 1
  br label %56

17:                                               ; preds = %2
  %18 = load ptr, ptr %5, align 8
  %19 = getelementptr inbounds nuw %struct.VuVirtq, ptr %18, i32 0, i32 0
  %20 = getelementptr inbounds nuw %struct.VuRing, ptr %19, i32 0, i32 2
  %21 = load ptr, ptr %20, align 8
  %22 = icmp ne ptr %21, null
  %23 = xor i1 %22, true
  %24 = xor i1 %23, true
  %25 = zext i1 %24 to i32
  %26 = sext i32 %25 to i64
  %27 = call i64 @llvm.expect.i64(i64 %26, i64 1)
  %28 = icmp ne i64 %27, 0
  br i1 %28, label %29, label %30

29:                                               ; preds = %17
  store i1 true, ptr %3, align 1
  br label %56

30:                                               ; preds = %17
  %31 = load ptr, ptr %5, align 8
  %32 = getelementptr inbounds nuw %struct.VuVirtq, ptr %31, i32 0, i32 18
  %33 = getelementptr inbounds nuw %struct.vhost_vring_addr, ptr %32, i32 0, i32 2
  %34 = load i64, ptr %33, align 8
  %35 = icmp ne i64 %34, 0
  br i1 %35, label %36, label %48

36:                                               ; preds = %30
  %37 = load ptr, ptr %5, align 8
  %38 = getelementptr inbounds nuw %struct.VuVirtq, ptr %37, i32 0, i32 18
  %39 = getelementptr inbounds nuw %struct.vhost_vring_addr, ptr %38, i32 0, i32 3
  %40 = load i64, ptr %39, align 8
  %41 = icmp ne i64 %40, 0
  br i1 %41, label %42, label %48

42:                                               ; preds = %36
  %43 = load ptr, ptr %5, align 8
  %44 = getelementptr inbounds nuw %struct.VuVirtq, ptr %43, i32 0, i32 18
  %45 = getelementptr inbounds nuw %struct.vhost_vring_addr, ptr %44, i32 0, i32 4
  %46 = load i64, ptr %45, align 8
  %47 = icmp ne i64 %46, 0
  br i1 %47, label %49, label %48

48:                                               ; preds = %42, %36, %30
  store i1 false, ptr %3, align 1
  br label %56

49:                                               ; preds = %42
  %50 = load ptr, ptr %4, align 8
  %51 = load ptr, ptr %5, align 8
  %52 = call zeroext i1 @map_ring(ptr noundef %50, ptr noundef %51)
  br i1 %52, label %53, label %55

53:                                               ; preds = %49
  %54 = load ptr, ptr %4, align 8
  call void (ptr, ptr, ...) @vu_panic(ptr noundef %54, ptr noundef @.str.98)
  store i1 false, ptr %3, align 1
  br label %56

55:                                               ; preds = %49
  store i1 true, ptr %3, align 1
  br label %56

56:                                               ; preds = %55, %53, %48, %29, %16
  %57 = load i1, ptr %3, align 1
  ret i1 %57
}

; Function Attrs: nounwind uwtable
define dso_local zeroext i1 @vu_queue_empty(ptr noundef %0, ptr noundef %1) #0 {
  %3 = alloca i1, align 1
  %4 = alloca ptr, align 8
  %5 = alloca ptr, align 8
  store ptr %0, ptr %4, align 8
  store ptr %1, ptr %5, align 8
  %6 = load ptr, ptr %4, align 8
  %7 = load ptr, ptr %5, align 8
  %8 = call zeroext i1 @vu_is_vq_usable(ptr noundef %6, ptr noundef %7)
  br i1 %8, label %10, label %9

9:                                                ; preds = %2
  store i1 true, ptr %3, align 1
  br label %30

10:                                               ; preds = %2
  %11 = load ptr, ptr %5, align 8
  %12 = getelementptr inbounds nuw %struct.VuVirtq, ptr %11, i32 0, i32 6
  %13 = load i16, ptr %12, align 2
  %14 = zext i16 %13 to i32
  %15 = load ptr, ptr %5, align 8
  %16 = getelementptr inbounds nuw %struct.VuVirtq, ptr %15, i32 0, i32 5
  %17 = load i16, ptr %16, align 8
  %18 = zext i16 %17 to i32
  %19 = icmp ne i32 %14, %18
  br i1 %19, label %20, label %21

20:                                               ; preds = %10
  store i1 false, ptr %3, align 1
  br label %30

21:                                               ; preds = %10
  %22 = load ptr, ptr %5, align 8
  %23 = call zeroext i16 @vring_avail_idx(ptr noundef %22)
  %24 = zext i16 %23 to i32
  %25 = load ptr, ptr %5, align 8
  %26 = getelementptr inbounds nuw %struct.VuVirtq, ptr %25, i32 0, i32 5
  %27 = load i16, ptr %26, align 8
  %28 = zext i16 %27 to i32
  %29 = icmp eq i32 %24, %28
  store i1 %29, ptr %3, align 1
  br label %30

30:                                               ; preds = %21, %20, %9
  %31 = load i1, ptr %3, align 1
  ret i1 %31
}