; Function Attrs: nounwind uwtable
define dso_local zeroext i1 @vu_queue_empty(ptr noundef %0, ptr noundef captures(none) %1) local_unnamed_addr #3 {
  %3 = getelementptr inbounds nuw i8, ptr %0, i64 136
  %4 = load i8, ptr %3, align 8, !range !5, !noundef !6
  %5 = trunc nuw i8 %4 to i1
  br i1 %5, label %vu_is_vq_usable.exit.thread, label %6, !prof !7

6:                                                ; preds = %2
  %7 = getelementptr inbounds nuw i8, ptr %1, i64 16
  %8 = load ptr, ptr %7, align 8
  %.not.i = icmp eq ptr %8, null
  br i1 %.not.i, label %9, label %vu_is_vq_usable.exit, !prof !7

9:                                                ; preds = %6
  %10 = getelementptr inbounds nuw i8, ptr %1, i64 136
  %11 = load i64, ptr %10, align 8
  %.not9.i = icmp eq i64 %11, 0
  br i1 %.not9.i, label %vu_is_vq_usable.exit.thread, label %12

12:                                               ; preds = %9
  %13 = getelementptr inbounds nuw i8, ptr %1, i64 144
  %14 = load i64, ptr %13, align 8
  %.not10.i = icmp eq i64 %14, 0
  br i1 %.not10.i, label %vu_is_vq_usable.exit.thread, label %15

15:                                               ; preds = %12
  %16 = getelementptr inbounds nuw i8, ptr %1, i64 152
  %17 = load i64, ptr %16, align 8
  %.not11.i = icmp eq i64 %17, 0
  br i1 %.not11.i, label %vu_is_vq_usable.exit.thread, label %18

18:                                               ; preds = %15
  %19 = tail call fastcc zeroext i1 @map_ring(ptr noundef nonnull %0, ptr noundef nonnull %1)
  br i1 %19, label %20, label %vu_is_vq_usable.exit

20:                                               ; preds = %18
  tail call void (ptr, ptr, ...) @vu_panic(ptr noundef nonnull %0, ptr noundef nonnull @.str.98)
  br label %vu_is_vq_usable.exit.thread

vu_is_vq_usable.exit:                             ; preds = %18, %6
  %21 = getelementptr inbounds nuw i8, ptr %1, i64 82
  %22 = load i16, ptr %21, align 2
  %23 = getelementptr inbounds nuw i8, ptr %1, i64 80
  %24 = load i16, ptr %23, align 8
  %.not = icmp eq i16 %22, %24
  br i1 %.not, label %25, label %vu_is_vq_usable.exit.thread

25:                                               ; preds = %vu_is_vq_usable.exit
  %26 = load ptr, ptr %7, align 8
  %27 = getelementptr inbounds nuw i8, ptr %26, i64 2
  %28 = load i16, ptr %27, align 2
  store i16 %28, ptr %21, align 2
  %29 = icmp eq i16 %28, %22
  br label %vu_is_vq_usable.exit.thread

vu_is_vq_usable.exit.thread:                      ; preds = %9, %12, %15, %2, %20, %vu_is_vq_usable.exit, %25
  %.0 = phi i1 [ %29, %25 ], [ false, %vu_is_vq_usable.exit ], [ true, %20 ], [ true, %2 ], [ true, %15 ], [ true, %12 ], [ true, %9 ]
  ret i1 %.0
}